; Function Attrs: mustprogress nofree norecurse nosync nounwind memory(readwrite, inaccessiblemem: none) uwtable
define void @_ZNK3gmx16ScaleCoordinatesclENS_8ArrayRefINS_11BasicVectorIfEEEE(ptr nocapture noundef nonnull readonly align 8 dereferenceable(8) %0, ptr %1, ptr readnone %2) local_unnamed_addr #2 align 2 {
  %4 = load ptr, ptr %0, align 8
  %.not11.i = icmp eq ptr %1, %2
  br i1 %.not11.i, label %_ZNK3gmx16ScaleCoordinates4Impl5scaleENS_8ArrayRefINS_11BasicVectorIfEEEE.exit, label %.lr.ph.i

.lr.ph.i:                                         ; preds = %3
  %5 = getelementptr inbounds i8, ptr %4, i64 4
  %6 = getelementptr inbounds i8, ptr %4, i64 8
  br label %7

7:                                                ; preds = %7, %.lr.ph.i
  %.sroa.0.012.i = phi ptr [ %1, %.lr.ph.i ], [ %19, %7 ]
  %8 = load float, ptr %4, align 4
  %9 = load float, ptr %.sroa.0.012.i, align 4
  %10 = fmul float %8, %9
  store float %10, ptr %.sroa.0.012.i, align 4
  %11 = load float, ptr %5, align 4
  %12 = getelementptr inbounds i8, ptr %.sroa.0.012.i, i64 4
  %13 = load float, ptr %12, align 4
  %14 = fmul float %11, %13
  store float %14, ptr %12, align 4
  %15 = load float, ptr %6, align 4
  %16 = getelementptr inbounds i8, ptr %.sroa.0.012.i, i64 8
  %17 = load float, ptr %16, align 4
  %18 = fmul float %15, %17
  store float %18, ptr %16, align 4
  %19 = getelementptr inbounds i8, ptr %.sroa.0.012.i, i64 12
  %.not.i = icmp eq ptr %19, %2
  br i1 %.not.i, label %_ZNK3gmx16ScaleCoordinates4Impl5scaleENS_8ArrayRefINS_11BasicVectorIfEEEE.exit, label %7

_ZNK3gmx16ScaleCoordinates4Impl5scaleENS_8ArrayRefINS_11BasicVectorIfEEEE.exit: ; preds = %7, %3
  ret void
}